target datalayout = "e-m:e-p270:32:32-p271:32:32-p272:64:64-i64:64-i128:128-f80:128-n8:16:32:64-S128"
target triple = "x86_64-pc-linux-gnu"

; Function Attrs: nounwind uwtable
define dso_local ptr @canonicalize_ec_expression(ptr noundef %0, i32 noundef %1, i32 noundef %2) #0 {
  %4 = alloca ptr, align 8
  %5 = alloca i32, align 4
  %6 = alloca i32, align 4
  %7 = alloca i32, align 4
  %8 = alloca i32, align 4
  store ptr %0, ptr %4, align 8
  store i32 %1, ptr %5, align 4
  store i32 %2, ptr %6, align 4
  call void @llvm.lifetime.start.p0(i64 4, ptr %7) #6
  %9 = load ptr, ptr %4, align 8
  %10 = call i32 @exprType(ptr noundef %9)
  store i32 %10, ptr %7, align 4
  %11 = load i32, ptr %5, align 4
  %12 = icmp eq i32 %11, 2283
  br i1 %12, label %46, label %13

13:                                               ; preds = %3
  %14 = load i32, ptr %5, align 4
  %15 = icmp eq i32 %14, 2277
  br i1 %15, label %46, label %16

16:                                               ; preds = %13
  %17 = load i32, ptr %5, align 4
  %18 = icmp eq i32 %17, 2776
  br i1 %18, label %46, label %19

19:                                               ; preds = %16
  %20 = load i32, ptr %5, align 4
  %21 = icmp eq i32 %20, 3500
  br i1 %21, label %46, label %22

22:                                               ; preds = %19
  %23 = load i32, ptr %5, align 4
  %24 = icmp eq i32 %23, 3831
  br i1 %24, label %46, label %25

25:                                               ; preds = %22
  %26 = load i32, ptr %5, align 4
  %27 = icmp eq i32 %26, 4537
  br i1 %27, label %46, label %28

28:                                               ; preds = %25
  %29 = load i32, ptr %5, align 4
  %30 = icmp eq i32 %29, 5077
  br i1 %30, label %46, label %31

31:                                               ; preds = %28
  %32 = load i32, ptr %5, align 4
  %33 = icmp eq i32 %32, 5078
  br i1 %33, label %46, label %34

34:                                               ; preds = %31
  %35 = load i32, ptr %5, align 4
  %36 = icmp eq i32 %35, 5079
  br i1 %36, label %46, label %37

37:                                               ; preds = %34
  %38 = load i32, ptr %5, align 4
  %39 = icmp eq i32 %38, 5080
  br i1 %39, label %46, label %40

40:                                               ; preds = %37
  %41 = load i32, ptr %5, align 4
  %42 = icmp eq i32 %41, 4538
  br i1 %42, label %46, label %43

43:                                               ; preds = %40
  %44 = load i32, ptr %5, align 4
  %45 = icmp eq i32 %44, 2249
  br i1 %45, label %46, label %48

46:                                               ; preds = %43, %40, %37, %34, %31, %28, %25, %22, %19, %16, %13, %3
  %47 = load i32, ptr %7, align 4
  store i32 %47, ptr %5, align 4
  br label %48

48:                                               ; preds = %46, %43
  %49 = load i32, ptr %7, align 4
  %50 = load i32, ptr %5, align 4
  %51 = icmp ne i32 %49, %50
  br i1 %51, label %57, label %52

52:                                               ; preds = %48
  %53 = load ptr, ptr %4, align 8
  %54 = call i32 @exprCollation(ptr noundef %53)
  %55 = load i32, ptr %6, align 4
  %56 = icmp ne i32 %54, %55
  br i1 %56, label %57, label %71

57:                                               ; preds = %52, %48
  call void @llvm.lifetime.start.p0(i64 4, ptr %8) #6
  %58 = load i32, ptr %7, align 4
  %59 = load i32, ptr %5, align 4
  %60 = icmp ne i32 %58, %59
  br i1 %60, label %61, label %62

61:                                               ; preds = %57
  store i32 -1, ptr %8, align 4
  br label %65

62:                                               ; preds = %57
  %63 = load ptr, ptr %4, align 8
  %64 = call i32 @exprTypmod(ptr noundef %63)
  store i32 %64, ptr %8, align 4
  br label %65

65:                                               ; preds = %62, %61
  %66 = load ptr, ptr %4, align 8
  %67 = load i32, ptr %5, align 4
  %68 = load i32, ptr %8, align 4
  %69 = load i32, ptr %6, align 4
  %70 = call ptr @applyRelabelType(ptr noundef %66, i32 noundef %67, i32 noundef %68, i32 noundef %69, i32 noundef 2, i32 noundef -1, i1 noundef zeroext false)
  store ptr %70, ptr %4, align 8
  call void @llvm.lifetime.end.p0(i64 4, ptr %8) #6
  br label %71

71:                                               ; preds = %65, %52
  %72 = load ptr, ptr %4, align 8
  call void @llvm.lifetime.end.p0(i64 4, ptr %7) #6
  ret ptr %72
}