; Function Attrs: nounwind uwtable
define dso_local ptr @canonicalize_ec_expression(ptr noundef %0, i32 noundef %1, i32 noundef %2) local_unnamed_addr #0 {
  %4 = tail call i32 @exprType(ptr noundef %0) #8
  switch i32 %1, label %5 [
    i32 5080, label %.thread
    i32 5079, label %.thread
    i32 5078, label %.thread
    i32 5077, label %.thread
    i32 4538, label %.thread
    i32 4537, label %.thread
    i32 3831, label %.thread
    i32 3500, label %.thread
    i32 2776, label %.thread
    i32 2283, label %.thread
    i32 2277, label %.thread
    i32 2249, label %.thread
  ]

5:                                                ; preds = %3
  %.not = icmp eq i32 %4, %1
  br i1 %.not, label %.thread, label %.critedge

.thread:                                          ; preds = %3, %3, %3, %3, %3, %3, %3, %3, %3, %3, %3, %3, %5
  %.04752 = phi i32 [ %1, %5 ], [ %4, %3 ], [ %4, %3 ], [ %4, %3 ], [ %4, %3 ], [ %4, %3 ], [ %4, %3 ], [ %4, %3 ], [ %4, %3 ], [ %4, %3 ], [ %4, %3 ], [ %4, %3 ], [ %4, %3 ]
  %6 = tail call i32 @exprCollation(ptr noundef %0) #8
  %.not48 = icmp eq i32 %6, %2
  br i1 %.not48, label %10, label %7

7:                                                ; preds = %.thread
  %8 = tail call i32 @exprTypmod(ptr noundef %0) #8
  br label %.critedge

.critedge:                                        ; preds = %5, %7
  %.04751 = phi i32 [ %.04752, %7 ], [ %1, %5 ]
  %.0 = phi i32 [ %8, %7 ], [ -1, %5 ]
  %9 = tail call ptr @applyRelabelType(ptr noundef %0, i32 noundef %.04751, i32 noundef %.0, i32 noundef %2, i32 noundef 2, i32 noundef -1, i1 noundef zeroext false) #8
  br label %10

10:                                               ; preds = %.critedge, %.thread
  %.046 = phi ptr [ %9, %.critedge ], [ %0, %.thread ]
  ret ptr %.046
}